target datalayout = "e-m:e-p270:32:32-p271:32:32-p272:64:64-i64:64-i128:128-f80:128-n8:16:32:64-S128"
target triple = "x86_64-unknown-linux-gnu"

%struct.PropertyInfo = type { ptr, ptr, ptr, i8, ptr, ptr, ptr, ptr, ptr, ptr }
%struct.Property = type { ptr, ptr, i64, i8, i64, i8, %union.anon, i32, ptr, i32, ptr }
%union.anon = type { i64 }
%struct.ObjectProperty = type { ptr, ptr, ptr, ptr, ptr, ptr, ptr, ptr, ptr, ptr }

@.str = private unnamed_addr constant [34 x i8] c"../qemu/hw/core/qdev-properties.c\00", align 1
@.str.25 = private unnamed_addr constant [20 x i8] c"!prop->info->create\00", align 1
@__PRETTY_FUNCTION__.qdev_property_add_static = private unnamed_addr constant [57 x i8] c"void qdev_property_add_static(DeviceState *, Property *)\00", align 1

; Function Attrs: nounwind sspstrong uwtable
define internal ptr @field_prop_setter(ptr noundef %info) #0 {
entry:
  %info.addr = alloca ptr, align 8
  store ptr %info, ptr %info.addr, align 8
  %0 = load ptr, ptr %info.addr, align 8
  %set = getelementptr inbounds %struct.PropertyInfo, ptr %0, i32 0, i32 8
  %1 = load ptr, ptr %set, align 8
  %tobool = icmp ne ptr %1, null
  %cond = select i1 %tobool, ptr @field_prop_set, ptr null
  ret ptr %cond
}

; Function Attrs: nounwind sspstrong uwtable
define internal ptr @field_prop_getter(ptr noundef %info) #0 {
entry:
  %info.addr = alloca ptr, align 8
  store ptr %info, ptr %info.addr, align 8
  %0 = load ptr, ptr %info.addr, align 8
  %get = getelementptr inbounds %struct.PropertyInfo, ptr %0, i32 0, i32 7
  %1 = load ptr, ptr %get, align 8
  %tobool = icmp ne ptr %1, null
  %cond = select i1 %tobool, ptr @field_prop_get, ptr null
  ret ptr %cond
}

; Function Attrs: nounwind sspstrong uwtable
define dso_local void @qdev_property_add_static(ptr noundef %dev, ptr noundef %prop) #0 {
entry:
  %dev.addr = alloca ptr, align 8
  %prop.addr = alloca ptr, align 8
  %obj = alloca ptr, align 8
  %op = alloca ptr, align 8
  store ptr %dev, ptr %dev.addr, align 8
  store ptr %prop, ptr %prop.addr, align 8
  %0 = load ptr, ptr %dev.addr, align 8
  store ptr %0, ptr %obj, align 8
  %1 = load ptr, ptr %prop.addr, align 8
  %info = getelementptr inbounds %struct.Property, ptr %1, i32 0, i32 1
  %2 = load ptr, ptr %info, align 8
  %create = getelementptr inbounds %struct.PropertyInfo, ptr %2, i32 0, i32 6
  %3 = load ptr, ptr %create, align 8
  %tobool = icmp ne ptr %3, null
  br i1 %tobool, label %if.else, label %if.then

if.then:                                          ; preds = %entry
  br label %if.end

if.else:                                          ; preds = %entry
  call void @__assert_fail(ptr noundef @.str.25, ptr noundef @.str, i32 noundef 978, ptr noundef @__PRETTY_FUNCTION__.qdev_property_add_static) #9
  unreachable

if.end:                                           ; preds = %if.then
  %4 = load ptr, ptr %obj, align 8
  %5 = load ptr, ptr %prop.addr, align 8
  %name = getelementptr inbounds %struct.Property, ptr %5, i32 0, i32 0
  %6 = load ptr, ptr %name, align 8
  %7 = load ptr, ptr %prop.addr, align 8
  %info1 = getelementptr inbounds %struct.Property, ptr %7, i32 0, i32 1
  %8 = load ptr, ptr %info1, align 8
  %name2 = getelementptr inbounds %struct.PropertyInfo, ptr %8, i32 0, i32 0
  %9 = load ptr, ptr %name2, align 8
  %10 = load ptr, ptr %prop.addr, align 8
  %info3 = getelementptr inbounds %struct.Property, ptr %10, i32 0, i32 1
  %11 = load ptr, ptr %info3, align 8
  %call = call ptr @field_prop_getter(ptr noundef %11)
  %12 = load ptr, ptr %prop.addr, align 8
  %info4 = getelementptr inbounds %struct.Property, ptr %12, i32 0, i32 1
  %13 = load ptr, ptr %info4, align 8
  %call5 = call ptr @field_prop_setter(ptr noundef %13)
  %14 = load ptr, ptr %prop.addr, align 8
  %info6 = getelementptr inbounds %struct.Property, ptr %14, i32 0, i32 1
  %15 = load ptr, ptr %info6, align 8
  %release = getelementptr inbounds %struct.PropertyInfo, ptr %15, i32 0, i32 9
  %16 = load ptr, ptr %release, align 8
  %17 = load ptr, ptr %prop.addr, align 8
  %call7 = call ptr @object_property_add(ptr noundef %4, ptr noundef %6, ptr noundef %9, ptr noundef %call, ptr noundef %call5, ptr noundef %16, ptr noundef %17)
  store ptr %call7, ptr %op, align 8
  %18 = load ptr, ptr %obj, align 8
  %19 = load ptr, ptr %prop.addr, align 8
  %name8 = getelementptr inbounds %struct.Property, ptr %19, i32 0, i32 0
  %20 = load ptr, ptr %name8, align 8
  %21 = load ptr, ptr %prop.addr, align 8
  %info9 = getelementptr inbounds %struct.Property, ptr %21, i32 0, i32 1
  %22 = load ptr, ptr %info9, align 8
  %description = getelementptr inbounds %struct.PropertyInfo, ptr %22, i32 0, i32 1
  %23 = load ptr, ptr %description, align 8
  call void @object_property_set_description(ptr noundef %18, ptr noundef %20, ptr noundef %23)
  %24 = load ptr, ptr %prop.addr, align 8
  %set_default = getelementptr inbounds %struct.Property, ptr %24, i32 0, i32 5
  %25 = load i8, ptr %set_default, align 8
  %tobool10 = trunc i8 %25 to i1
  br i1 %tobool10, label %if.then11, label %if.end17

if.then11:                                        ; preds = %if.end
  %26 = load ptr, ptr %prop.addr, align 8
  %info12 = getelementptr inbounds %struct.Property, ptr %26, i32 0, i32 1
  %27 = load ptr, ptr %info12, align 8
  %set_default_value = getelementptr inbounds %struct.PropertyInfo, ptr %27, i32 0, i32 5
  %28 = load ptr, ptr %set_default_value, align 8
  %29 = load ptr, ptr %op, align 8
  %30 = load ptr, ptr %prop.addr, align 8
  call void %28(ptr noundef %29, ptr noundef %30)
  %31 = load ptr, ptr %op, align 8
  %init = getelementptr inbounds %struct.ObjectProperty, ptr %31, i32 0, i32 7
  %32 = load ptr, ptr %init, align 8
  %tobool13 = icmp ne ptr %32, null
  br i1 %tobool13, label %if.then14, label %if.end16

if.then14:                                        ; preds = %if.then11
  %33 = load ptr, ptr %op, align 8
  %init15 = getelementptr inbounds %struct.ObjectProperty, ptr %33, i32 0, i32 7
  %34 = load ptr, ptr %init15, align 8
  %35 = load ptr, ptr %obj, align 8
  %36 = load ptr, ptr %op, align 8
  call void %34(ptr noundef %35, ptr noundef %36)
  br label %if.end16

if.end16:                                         ; preds = %if.then14, %if.then11
  br label %if.end17

if.end17:                                         ; preds = %if.end16, %if.end
  ret void
}