; Function Attrs: nounwind sspstrong uwtable
define dso_local void @qdev_property_add_static(ptr noundef %dev, ptr noundef %prop) local_unnamed_addr #0 {
entry:
  %info = getelementptr inbounds nuw i8, ptr %prop, i64 8
  %0 = load ptr, ptr %info, align 8
  %create = getelementptr inbounds nuw i8, ptr %0, i64 48
  %1 = load ptr, ptr %create, align 8
  %tobool.not = icmp eq ptr %1, null
  br i1 %tobool.not, label %if.end, label %if.else

if.else:                                          ; preds = %entry
  tail call void @__assert_fail(ptr noundef nonnull @.str.25, ptr noundef nonnull @.str, i32 noundef 978, ptr noundef nonnull @__PRETTY_FUNCTION__.qdev_property_add_static) #10
  unreachable

if.end:                                           ; preds = %entry
  %2 = load ptr, ptr %prop, align 8
  %3 = load ptr, ptr %0, align 8
  %4 = getelementptr i8, ptr %0, i64 56
  %.val = load ptr, ptr %4, align 8
  %tobool.not.i = icmp eq ptr %.val, null
  %cond.i = select i1 %tobool.not.i, ptr null, ptr @field_prop_get
  %5 = getelementptr i8, ptr %0, i64 64
  %.val17 = load ptr, ptr %5, align 8
  %tobool.not.i18 = icmp eq ptr %.val17, null
  %cond.i19 = select i1 %tobool.not.i18, ptr null, ptr @field_prop_set
  %release = getelementptr inbounds nuw i8, ptr %0, i64 72
  %6 = load ptr, ptr %release, align 8
  %call7 = tail call ptr @object_property_add(ptr noundef %dev, ptr noundef %2, ptr noundef %3, ptr noundef %cond.i, ptr noundef %cond.i19, ptr noundef %6, ptr noundef nonnull %prop) #9
  %7 = load ptr, ptr %prop, align 8
  %8 = load ptr, ptr %info, align 8
  %description = getelementptr inbounds nuw i8, ptr %8, i64 8
  %9 = load ptr, ptr %description, align 8
  tail call void @object_property_set_description(ptr noundef %dev, ptr noundef %7, ptr noundef %9) #9
  %set_default = getelementptr inbounds nuw i8, ptr %prop, i64 40
  %10 = load i8, ptr %set_default, align 8
  %tobool10 = trunc i8 %10 to i1
  br i1 %tobool10, label %if.then11, label %if.end17

if.then11:                                        ; preds = %if.end
  %11 = load ptr, ptr %info, align 8
  %set_default_value = getelementptr inbounds nuw i8, ptr %11, i64 40
  %12 = load ptr, ptr %set_default_value, align 8
  tail call void %12(ptr noundef %call7, ptr noundef nonnull %prop) #9
  %init = getelementptr inbounds nuw i8, ptr %call7, i64 56
  %13 = load ptr, ptr %init, align 8
  %tobool13.not = icmp eq ptr %13, null
  br i1 %tobool13.not, label %if.end17, label %if.then14

if.then14:                                        ; preds = %if.then11
  tail call void %13(ptr noundef %dev, ptr noundef nonnull %call7) #9
  br label %if.end17

if.end17:                                         ; preds = %if.then11, %if.then14, %if.end
  ret void
}